; Function Attrs: mustprogress nounwind uwtable
define void @_ZN7testing9TestSuite11ClearResultEv(ptr noundef nonnull align 8 captures(none) dereferenceable(264) %0) local_unnamed_addr #10 align 2 {
  %2 = getelementptr inbounds nuw i8, ptr %0, i64 136
  tail call void @_ZN7testing10TestResult5ClearEv(ptr noundef nonnull align 8 dereferenceable(128) %2)
  %3 = getelementptr inbounds nuw i8, ptr %0, i64 48
  %4 = load ptr, ptr %3, align 8, !tbaa !791
  %5 = getelementptr inbounds nuw i8, ptr %0, i64 56
  %6 = load ptr, ptr %5, align 8, !tbaa !791
  %.not5.i.i = icmp eq ptr %4, %6
  br i1 %.not5.i.i, label %_ZN7testing8internal7ForEachISt6vectorIPNS_8TestInfoESaIS4_EEPFvS4_EEEvRKT_T0_.exit, label %.lr.ph.i.i

.lr.ph.i.i:                                       ; preds = %1, %.lr.ph.i.i
  %.sroa.02.06.i.i = phi ptr [ %9, %.lr.ph.i.i ], [ %4, %1 ]
  %7 = load ptr, ptr %.sroa.02.06.i.i, align 8, !tbaa !792
  %8 = getelementptr inbounds nuw i8, ptr %7, i64 144
  tail call void @_ZN7testing10TestResult5ClearEv(ptr noundef nonnull align 8 dereferenceable(128) %8)
  %9 = getelementptr inbounds nuw i8, ptr %.sroa.02.06.i.i, i64 8
  %.not.i.i = icmp eq ptr %9, %6
  br i1 %.not.i.i, label %_ZN7testing8internal7ForEachISt6vectorIPNS_8TestInfoESaIS4_EEPFvS4_EEEvRKT_T0_.exit, label %.lr.ph.i.i, !llvm.loop !1098

_ZN7testing8internal7ForEachISt6vectorIPNS_8TestInfoESaIS4_EEPFvS4_EEEvRKT_T0_.exit: ; preds = %.lr.ph.i.i, %1
  ret void
}